; Function Attrs: nounwind uwtable
define ptr @lv_subject_add_observer(ptr noundef %0, ptr noundef %1, ptr noundef %2) local_unnamed_addr #0 {
  %.not.i = icmp eq ptr %0, null
  br i1 %.not.i, label %.preheader.i, label %4

.preheader.i:                                     ; preds = %3, %.preheader.i
  br label %.preheader.i

4:                                                ; preds = %3
  %5 = getelementptr inbounds nuw i8, ptr %0, i64 48
  %6 = load i32, ptr %5, align 8
  %7 = and i32 %6, 15
  %8 = icmp eq i32 %7, 0
  br i1 %8, label %lv_subject_add_observer_obj.exit, label %9

9:                                                ; preds = %4
  %10 = tail call ptr @lv_ll_ins_tail(ptr noundef nonnull %0) #9
  %.not28.i = icmp eq ptr %10, null
  br i1 %.not28.i, label %.preheader31.i, label %11

.preheader31.i:                                   ; preds = %9, %.preheader31.i
  br label %.preheader31.i

11:                                               ; preds = %9
  tail call void @lv_memset(ptr noundef nonnull %10, i8 noundef zeroext 0, i64 noundef 40) #9
  store ptr %0, ptr %10, align 8, !tbaa !9
  %12 = getelementptr inbounds nuw i8, ptr %10, i64 8
  store ptr %1, ptr %12, align 8, !tbaa !12
  %13 = getelementptr inbounds nuw i8, ptr %10, i64 24
  store ptr %2, ptr %13, align 8, !tbaa !13
  %14 = getelementptr inbounds nuw i8, ptr %10, i64 16
  store ptr null, ptr %14, align 8, !tbaa !14
  %15 = getelementptr inbounds nuw i8, ptr %10, i64 32
  %16 = load i8, ptr %15, align 8
  %17 = or i8 %16, 4
  store i8 %17, ptr %15, align 8
  %.not30.i = icmp eq ptr %1, null
  br i1 %.not30.i, label %19, label %18

18:                                               ; preds = %11
  tail call void %1(ptr noundef nonnull %10, ptr noundef nonnull %0) #9
  %.pre = load i8, ptr %15, align 8
  br label %19

19:                                               ; preds = %11, %18
  %20 = phi i8 [ %17, %11 ], [ %.pre, %18 ]
  %21 = and i8 %20, -5
  store i8 %21, ptr %15, align 8
  br label %lv_subject_add_observer_obj.exit

lv_subject_add_observer_obj.exit:                 ; preds = %4, %19
  %.0 = phi ptr [ %10, %19 ], [ null, %4 ]
  ret ptr %.0
}